target datalayout = "e-m:e-p270:32:32-p271:32:32-p272:64:64-i64:64-i128:128-f80:128-n8:16:32:64-S128"
target triple = "x86_64-pc-linux-gnu"

%struct.ggml_backend_i = type { ptr, ptr, ptr, ptr, ptr, ptr, ptr, ptr, ptr, ptr, ptr, ptr, ptr }
%struct.ggml_backend_cpu_context = type { i32, ptr, ptr, i64, ptr, ptr }
%struct.ggml_backend = type { ptr, %struct.ggml_backend_i, ptr, ptr }
%struct.ggml_cplan = type { i64, ptr, i32, ptr, ptr, ptr }
%struct.ggml_backend_plan_cpu = type { %struct.ggml_cplan, %struct.ggml_cgraph }
%struct.ggml_cgraph = type { i32, i32, i32, ptr, ptr, ptr, ptr, %struct.ggml_hash_set, i32 }
%struct.ggml_hash_set = type { i64, ptr, ptr }

; Function Attrs: mustprogress uwtable
define internal noundef ptr @_ZL34ggml_backend_cpu_graph_plan_createP12ggml_backendPK11ggml_cgraph(ptr noundef %0, ptr noundef %1) #0 {
  %3 = alloca ptr, align 8
  %4 = alloca ptr, align 8
  %5 = alloca ptr, align 8
  %6 = alloca ptr, align 8
  %7 = alloca ptr, align 8
  %8 = alloca %struct.ggml_cplan, align 8
  %9 = alloca i32, align 4
  store ptr %0, ptr %4, align 8, !tbaa !61
  store ptr %1, ptr %5, align 8, !tbaa !63
  call void @llvm.lifetime.start.p0(i64 8, ptr %6) #1
  %10 = load ptr, ptr %4, align 8, !tbaa !61
  %11 = getelementptr inbounds nuw %struct.ggml_backend, ptr %10, i32 0, i32 3
  %12 = load ptr, ptr %11, align 8, !tbaa !60
  store ptr %12, ptr %6, align 8, !tbaa !43
  call void @llvm.lifetime.start.p0(i64 8, ptr %7) #1
  %13 = call noalias noundef nonnull ptr @_Znwm(i64 noundef 128) #17
  store ptr %13, ptr %7, align 8, !tbaa !65
  call void @llvm.lifetime.start.p0(i64 48, ptr %8) #1
  %14 = load ptr, ptr %5, align 8, !tbaa !63
  %15 = load ptr, ptr %6, align 8, !tbaa !43
  %16 = getelementptr inbounds nuw %struct.ggml_backend_cpu_context, ptr %15, i32 0, i32 0
  %17 = load i32, ptr %16, align 8, !tbaa !45
  %18 = load ptr, ptr %6, align 8, !tbaa !43
  %19 = getelementptr inbounds nuw %struct.ggml_backend_cpu_context, ptr %18, i32 0, i32 1
  %20 = load ptr, ptr %19, align 8, !tbaa !49
  call void @ggml_graph_plan(ptr dead_on_unwind writable sret(%struct.ggml_cplan) align 8 %8, ptr noundef %14, i32 noundef %17, ptr noundef %20)
  %21 = load ptr, ptr %7, align 8, !tbaa !65
  %22 = getelementptr inbounds nuw %struct.ggml_backend_plan_cpu, ptr %21, i32 0, i32 0
  call void @llvm.memcpy.p0.p0.i64(ptr align 8 %22, ptr align 8 %8, i64 48, i1 false), !tbaa.struct !67
  call void @llvm.lifetime.end.p0(i64 48, ptr %8) #1
  %23 = load ptr, ptr %5, align 8, !tbaa !63
  %24 = load ptr, ptr %7, align 8, !tbaa !65
  %25 = getelementptr inbounds nuw %struct.ggml_backend_plan_cpu, ptr %24, i32 0, i32 1
  call void @llvm.memcpy.p0.p0.i64(ptr align 8 %25, ptr align 8 %23, i64 80, i1 false), !tbaa.struct !70
  %26 = load ptr, ptr %7, align 8, !tbaa !65
  %27 = getelementptr inbounds nuw %struct.ggml_backend_plan_cpu, ptr %26, i32 0, i32 0
  %28 = getelementptr inbounds nuw %struct.ggml_cplan, ptr %27, i32 0, i32 0
  %29 = load i64, ptr %28, align 8, !tbaa !77
  %30 = icmp ugt i64 %29, 0
  br i1 %30, label %31, label %51

31:                                               ; preds = %2
  %32 = load ptr, ptr %7, align 8, !tbaa !65
  %33 = getelementptr inbounds nuw %struct.ggml_backend_plan_cpu, ptr %32, i32 0, i32 0
  %34 = getelementptr inbounds nuw %struct.ggml_cplan, ptr %33, i32 0, i32 0
  %35 = load i64, ptr %34, align 8, !tbaa !77
  %36 = call noalias noundef nonnull ptr @_Znam(i64 noundef %35) #17
  %37 = load ptr, ptr %7, align 8, !tbaa !65
  %38 = getelementptr inbounds nuw %struct.ggml_backend_plan_cpu, ptr %37, i32 0, i32 0
  %39 = getelementptr inbounds nuw %struct.ggml_cplan, ptr %38, i32 0, i32 1
  store ptr %36, ptr %39, align 8, !tbaa !82
  %40 = load ptr, ptr %7, align 8, !tbaa !65
  %41 = getelementptr inbounds nuw %struct.ggml_backend_plan_cpu, ptr %40, i32 0, i32 0
  %42 = getelementptr inbounds nuw %struct.ggml_cplan, ptr %41, i32 0, i32 1
  %43 = load ptr, ptr %42, align 8, !tbaa !82
  %44 = icmp eq ptr %43, null
  br i1 %44, label %45, label %50

45:                                               ; preds = %31
  %46 = load ptr, ptr %7, align 8, !tbaa !65
  %47 = icmp eq ptr %46, null
  br i1 %47, label %49, label %48

48:                                               ; preds = %45
  call void @_ZdlPvm(ptr noundef %46, i64 noundef 128) #18
  br label %49

49:                                               ; preds = %48, %45
  store ptr null, ptr %3, align 8
  store i32 1, ptr %9, align 4
  br label %65

50:                                               ; preds = %31
  br label %51

51:                                               ; preds = %50, %2
  %52 = load ptr, ptr %6, align 8, !tbaa !43
  %53 = getelementptr inbounds nuw %struct.ggml_backend_cpu_context, ptr %52, i32 0, i32 4
  %54 = load ptr, ptr %53, align 8, !tbaa !52
  %55 = load ptr, ptr %7, align 8, !tbaa !65
  %56 = getelementptr inbounds nuw %struct.ggml_backend_plan_cpu, ptr %55, i32 0, i32 0
  %57 = getelementptr inbounds nuw %struct.ggml_cplan, ptr %56, i32 0, i32 4
  store ptr %54, ptr %57, align 8, !tbaa !83
  %58 = load ptr, ptr %6, align 8, !tbaa !43
  %59 = getelementptr inbounds nuw %struct.ggml_backend_cpu_context, ptr %58, i32 0, i32 5
  %60 = load ptr, ptr %59, align 8, !tbaa !53
  %61 = load ptr, ptr %7, align 8, !tbaa !65
  %62 = getelementptr inbounds nuw %struct.ggml_backend_plan_cpu, ptr %61, i32 0, i32 0
  %63 = getelementptr inbounds nuw %struct.ggml_cplan, ptr %62, i32 0, i32 5
  store ptr %60, ptr %63, align 8, !tbaa !84
  %64 = load ptr, ptr %7, align 8, !tbaa !65
  store ptr %64, ptr %3, align 8
  store i32 1, ptr %9, align 4
  br label %65

65:                                               ; preds = %51, %49
  call void @llvm.lifetime.end.p0(i64 8, ptr %7) #1
  call void @llvm.lifetime.end.p0(i64 8, ptr %6) #1
  %66 = load ptr, ptr %3, align 8
  ret ptr %66
}