; Function Attrs: mustprogress uwtable
define internal noalias noundef nonnull ptr @_ZL34ggml_backend_cpu_graph_plan_createP12ggml_backendPK11ggml_cgraph(ptr noundef readonly captures(none) %0, ptr noundef %1) #0 {
  %3 = alloca %struct.ggml_cplan, align 8
  %4 = getelementptr inbounds nuw i8, ptr %0, i64 120
  %5 = load ptr, ptr %4, align 8, !tbaa !29
  %6 = tail call noalias noundef nonnull dereferenceable(128) ptr @_Znwm(i64 noundef 128) #27
  call void @llvm.lifetime.start.p0(i64 48, ptr nonnull %3) #25
  %7 = load i32, ptr %5, align 8, !tbaa !16
  %8 = getelementptr inbounds nuw i8, ptr %5, i64 8
  %9 = load ptr, ptr %8, align 8, !tbaa !31
  call void @ggml_graph_plan(ptr dead_on_unwind nonnull writable sret(%struct.ggml_cplan) align 8 %3, ptr noundef %1, i32 noundef %7, ptr noundef %9)
  call void @llvm.memcpy.p0.p0.i64(ptr noundef nonnull align 8 dereferenceable(48) %6, ptr noundef nonnull align 8 dereferenceable(48) %3, i64 48, i1 false), !tbaa.struct !32
  call void @llvm.lifetime.end.p0(i64 48, ptr nonnull %3) #25
  %10 = getelementptr inbounds nuw i8, ptr %6, i64 48
  call void @llvm.memcpy.p0.p0.i64(ptr noundef nonnull align 8 dereferenceable(80) %10, ptr noundef nonnull align 8 dereferenceable(80) %1, i64 80, i1 false), !tbaa.struct !37
  %11 = load i64, ptr %6, align 8, !tbaa !44
  %.not = icmp eq i64 %11, 0
  br i1 %.not, label %15, label %12

12:                                               ; preds = %2
  %13 = call noalias noundef nonnull ptr @_Znam(i64 noundef %11) #27
  %14 = getelementptr inbounds nuw i8, ptr %6, i64 8
  store ptr %13, ptr %14, align 8, !tbaa !49
  br label %15

15:                                               ; preds = %12, %2
  %16 = getelementptr inbounds nuw i8, ptr %5, i64 32
  %17 = load ptr, ptr %16, align 8, !tbaa !50
  %18 = getelementptr inbounds nuw i8, ptr %6, i64 32
  store ptr %17, ptr %18, align 8, !tbaa !51
  %19 = getelementptr inbounds nuw i8, ptr %5, i64 40
  %20 = load ptr, ptr %19, align 8, !tbaa !52
  %21 = getelementptr inbounds nuw i8, ptr %6, i64 40
  store ptr %20, ptr %21, align 8, !tbaa !53
  ret ptr %6
}